target datalayout = "e-m:e-p270:32:32-p271:32:32-p272:64:64-i64:64-i128:128-f80:128-n8:16:32:64-S128"
target triple = "x86_64-pc-linux-gnu"

%"class.std::unique_ptr" = type { %"struct.std::__uniq_ptr_data" }
%"struct.std::__uniq_ptr_data" = type { %"class.std::__uniq_ptr_impl" }
%"class.std::__uniq_ptr_impl" = type { %"class.std::tuple" }
%"class.std::tuple" = type { %"struct.std::_Tuple_impl" }
%"struct.std::_Tuple_impl" = type { %"struct.std::_Head_base.1" }
%"struct.std::_Head_base.1" = type { ptr }

@_ZN4cvc54main9pExecutorE = external global %"class.std::unique_ptr", align 8
@.str.2 = private unnamed_addr constant [27 x i8] c"cvc5 interrupted by user.\0A\00", align 1

; Function Attrs: mustprogress nounwind uwtable
define linkonce_odr hidden noundef nonnull align 8 dereferenceable(8) ptr @_ZNSt10_Head_baseILm0EPN4cvc54main15CommandExecutorELb0EE7_M_headERKS4_(ptr noundef nonnull align 8 dereferenceable(8) %0) #2 comdat align 2 {
  %2 = alloca ptr, align 8
  store ptr %0, ptr %2, align 8, !tbaa !65
  %3 = load ptr, ptr %2, align 8, !tbaa !65
  %4 = getelementptr inbounds nuw %"struct.std::_Head_base.1", ptr %3, i32 0, i32 0
  ret ptr %4
}

; Function Attrs: mustprogress nounwind uwtable
define linkonce_odr hidden noundef nonnull align 8 dereferenceable(8) ptr @_ZNSt11_Tuple_implILm0EJPN4cvc54main15CommandExecutorESt14default_deleteIS2_EEE7_M_headERKS6_(ptr noundef nonnull align 8 dereferenceable(8) %0) #2 comdat align 2 {
  %2 = alloca ptr, align 8
  store ptr %0, ptr %2, align 8, !tbaa !63
  %3 = load ptr, ptr %2, align 8, !tbaa !63
  %4 = call noundef nonnull align 8 dereferenceable(8) ptr @_ZNSt10_Head_baseILm0EPN4cvc54main15CommandExecutorELb0EE7_M_headERKS4_(ptr noundef nonnull align 8 dereferenceable(8) %3) #16
  ret ptr %4
}

; Function Attrs: mustprogress nounwind uwtable
define linkonce_odr hidden noundef nonnull align 8 dereferenceable(8) ptr @_ZSt12__get_helperILm0EPN4cvc54main15CommandExecutorEJSt14default_deleteIS2_EEERKT0_RKSt11_Tuple_implIXT_EJS6_DpT1_EE(ptr noundef nonnull align 8 dereferenceable(8) %0) #2 comdat {
  %2 = alloca ptr, align 8
  store ptr %0, ptr %2, align 8, !tbaa !63
  %3 = load ptr, ptr %2, align 8, !tbaa !63
  %4 = call noundef nonnull align 8 dereferenceable(8) ptr @_ZNSt11_Tuple_implILm0EJPN4cvc54main15CommandExecutorESt14default_deleteIS2_EEE7_M_headERKS6_(ptr noundef nonnull align 8 dereferenceable(8) %3) #16
  ret ptr %4
}

; Function Attrs: mustprogress nounwind uwtable
define linkonce_odr hidden noundef nonnull align 8 dereferenceable(8) ptr @_ZSt3getILm0EJPN4cvc54main15CommandExecutorESt14default_deleteIS2_EEERKNSt13tuple_elementIXT_ESt5tupleIJDpT0_EEE4typeERKSA_(ptr noundef nonnull align 8 dereferenceable(8) %0) #2 comdat {
  %2 = alloca ptr, align 8
  store ptr %0, ptr %2, align 8, !tbaa !61
  %3 = load ptr, ptr %2, align 8, !tbaa !61
  %4 = call noundef nonnull align 8 dereferenceable(8) ptr @_ZSt12__get_helperILm0EPN4cvc54main15CommandExecutorEJSt14default_deleteIS2_EEERKT0_RKSt11_Tuple_implIXT_EJS6_DpT1_EE(ptr noundef nonnull align 8 dereferenceable(8) %3) #16
  ret ptr %4
}

; Function Attrs: mustprogress nounwind uwtable
define linkonce_odr hidden noundef ptr @_ZNKSt15__uniq_ptr_implIN4cvc54main15CommandExecutorESt14default_deleteIS2_EE6_M_ptrEv(ptr noundef nonnull align 8 dereferenceable(8) %0) #2 comdat align 2 {
  %2 = alloca ptr, align 8
  store ptr %0, ptr %2, align 8, !tbaa !57
  %3 = load ptr, ptr %2, align 8
  %4 = getelementptr inbounds nuw %"class.std::__uniq_ptr_impl", ptr %3, i32 0, i32 0
  %5 = call noundef nonnull align 8 dereferenceable(8) ptr @_ZSt3getILm0EJPN4cvc54main15CommandExecutorESt14default_deleteIS2_EEERKNSt13tuple_elementIXT_ESt5tupleIJDpT0_EEE4typeERKSA_(ptr noundef nonnull align 8 dereferenceable(8) %4) #16
  %6 = load ptr, ptr %5, align 8, !tbaa !59
  ret ptr %6
}

; Function Attrs: mustprogress nounwind uwtable
define linkonce_odr hidden noundef ptr @_ZNKSt10unique_ptrIN4cvc54main15CommandExecutorESt14default_deleteIS2_EE3getEv(ptr noundef nonnull align 8 dereferenceable(8) %0) #2 comdat align 2 {
  %2 = alloca ptr, align 8
  store ptr %0, ptr %2, align 8, !tbaa !3
  %3 = load ptr, ptr %2, align 8
  %4 = getelementptr inbounds nuw %"class.std::unique_ptr", ptr %3, i32 0, i32 0
  %5 = call noundef ptr @_ZNKSt15__uniq_ptr_implIN4cvc54main15CommandExecutorESt14default_deleteIS2_EE6_M_ptrEv(ptr noundef nonnull align 8 dereferenceable(8) %4) #16
  ret ptr %5
}

; Function Attrs: mustprogress nounwind uwtable
define linkonce_odr hidden noundef zeroext i1 @_ZNKSt10unique_ptrIN4cvc54main15CommandExecutorESt14default_deleteIS2_EEcvbEv(ptr noundef nonnull align 8 dereferenceable(8) %0) #2 comdat align 2 {
  %2 = alloca ptr, align 8
  store ptr %0, ptr %2, align 8, !tbaa !3
  %3 = load ptr, ptr %2, align 8
  %4 = call noundef ptr @_ZNKSt10unique_ptrIN4cvc54main15CommandExecutorESt14default_deleteIS2_EE3getEv(ptr noundef nonnull align 8 dereferenceable(8) %3) #16
  %5 = icmp eq ptr %4, null
  %6 = select i1 %5, i1 false, i1 true
  ret i1 %6
}

; Function Attrs: mustprogress nounwind uwtable
define linkonce_odr hidden noundef ptr @_ZNKSt10unique_ptrIN4cvc54main15CommandExecutorESt14default_deleteIS2_EEptEv(ptr noundef nonnull align 8 dereferenceable(8) %0) #2 comdat align 2 {
  %2 = alloca ptr, align 8
  store ptr %0, ptr %2, align 8, !tbaa !3
  %3 = load ptr, ptr %2, align 8
  %4 = call noundef ptr @_ZNKSt10unique_ptrIN4cvc54main15CommandExecutorESt14default_deleteIS2_EE3getEv(ptr noundef nonnull align 8 dereferenceable(8) %3) #16
  ret ptr %4
}

; Function Attrs: inlinehint mustprogress nounwind uwtable
define linkonce_odr hidden noundef zeroext i1 @_ZStneIN4cvc54main15CommandExecutorESt14default_deleteIS2_EEbRKSt10unique_ptrIT_T0_EDn(ptr noundef nonnull align 8 dereferenceable(8) %0, ptr %1) #1 comdat {
  %3 = alloca ptr, align 8
  %4 = alloca ptr, align 8
  store ptr %0, ptr %3, align 8, !tbaa !3
  store ptr %1, ptr %4, align 8, !tbaa !8
  %5 = load ptr, ptr %3, align 8, !tbaa !3
  %6 = call noundef zeroext i1 @_ZNKSt10unique_ptrIN4cvc54main15CommandExecutorESt14default_deleteIS2_EEcvbEv(ptr noundef nonnull align 8 dereferenceable(8) %5) #16
  ret i1 %6
}

; Function Attrs: mustprogress uwtable
define hidden void @_ZN4cvc54main15signal_handlers16print_statisticsEv() #0 {
  %1 = call noundef zeroext i1 @_ZStneIN4cvc54main15CommandExecutorESt14default_deleteIS2_EEbRKSt10unique_ptrIT_T0_EDn(ptr noundef nonnull align 8 dereferenceable(8) @_ZN4cvc54main9pExecutorE, ptr null) #16
  br i1 %1, label %2, label %4

2:                                                ; preds = %0
  %3 = call noundef ptr @_ZNKSt10unique_ptrIN4cvc54main15CommandExecutorESt14default_deleteIS2_EEptEv(ptr noundef nonnull align 8 dereferenceable(8) @_ZN4cvc54main9pExecutorE) #16
  call void @_ZNK4cvc54main15CommandExecutor19printStatisticsSafeEi(ptr noundef nonnull align 8 dereferenceable(41) %3, i32 noundef 2)
  br label %4

4:                                                ; preds = %2, %0
  ret void
}

; Function Attrs: mustprogress uwtable
define linkonce_odr void @_ZN4cvc58internal10safe_printILm27EEEviRAT__Kc(i32 noundef %0, ptr noundef nonnull align 1 dereferenceable(27) %1) #0 comdat {
  %3 = alloca i32, align 4
  %4 = alloca ptr, align 8
  %5 = alloca i64, align 8
  store i32 %0, ptr %3, align 4, !tbaa !10
  store ptr %1, ptr %4, align 8, !tbaa !12
  call void @llvm.lifetime.start.p0(i64 8, ptr %5) #16
  store i64 26, ptr %5, align 8, !tbaa !14
  %6 = load i32, ptr %3, align 4, !tbaa !10
  %7 = load ptr, ptr %4, align 8, !tbaa !12
  %8 = getelementptr inbounds [27 x i8], ptr %7, i64 0, i64 0
  %9 = load i64, ptr %5, align 8, !tbaa !14
  %10 = call i64 @write(i32 noundef %6, ptr noundef %8, i64 noundef %9)
  %11 = load i64, ptr %5, align 8, !tbaa !14
  %12 = icmp ne i64 %10, %11
  br i1 %12, label %13, label %14

13:                                               ; preds = %2
  call void @abort() #17
  unreachable

14:                                               ; preds = %2
  call void @llvm.lifetime.end.p0(i64 8, ptr %5) #16
  ret void
}

; Function Attrs: mustprogress uwtable
define hidden void @_ZN4cvc54main15signal_handlers14sigint_handlerEiP9siginfo_tPv(i32 noundef %0, ptr noundef %1, ptr noundef %2) #0 {
  %4 = alloca i32, align 4
  %5 = alloca ptr, align 8
  %6 = alloca ptr, align 8
  store i32 %0, ptr %4, align 4, !tbaa !10
  store ptr %1, ptr %5, align 8, !tbaa !16
  store ptr %2, ptr %6, align 8, !tbaa !16
  call void @_ZN4cvc58internal10safe_printILm27EEEviRAT__Kc(i32 noundef 2, ptr noundef nonnull align 1 dereferenceable(27) @.str.2)
  call void @_ZN4cvc54main15signal_handlers16print_statisticsEv()
  %7 = load i32, ptr %4, align 4, !tbaa !10
  %8 = call ptr @signal(i32 noundef %7, ptr noundef null) #16
  %9 = load i32, ptr %4, align 4, !tbaa !10
  %10 = call i32 @raise(i32 noundef %9) #16
  ret void
}