; Function Attrs: mustprogress uwtable
define hidden void @_ZN4cvc54main15signal_handlers14sigint_handlerEiP9siginfo_tPv(i32 noundef %0, ptr readnone captures(none) %1, ptr readnone captures(none) %2) #0 {
  %4 = tail call i64 @write(i32 noundef 2, ptr noundef nonnull @.str.2, i64 noundef 26)
  %.not.i = icmp eq i64 %4, 26
  br i1 %.not.i, label %_ZN4cvc58internal10safe_printILm27EEEviRAT__Kc.exit, label %5

5:                                                ; preds = %3
  tail call void @abort() #20
  unreachable

_ZN4cvc58internal10safe_printILm27EEEviRAT__Kc.exit: ; preds = %3
  %6 = load ptr, ptr @_ZN4cvc54main9pExecutorE, align 8, !tbaa !3
  %.not.i2 = icmp eq ptr %6, null
  br i1 %.not.i2, label %_ZN4cvc54main15signal_handlers16print_statisticsEv.exit, label %7

7:                                                ; preds = %_ZN4cvc58internal10safe_printILm27EEEviRAT__Kc.exit
  tail call void @_ZNK4cvc54main15CommandExecutor19printStatisticsSafeEi(ptr noundef nonnull align 8 dereferenceable(41) %6, i32 noundef 2)
  br label %_ZN4cvc54main15signal_handlers16print_statisticsEv.exit

_ZN4cvc54main15signal_handlers16print_statisticsEv.exit: ; preds = %_ZN4cvc58internal10safe_printILm27EEEviRAT__Kc.exit, %7
  %8 = tail call ptr @signal(i32 noundef %0, ptr noundef null) #21
  %9 = tail call i32 @raise(i32 noundef %0) #21
  ret void
}